; Function Attrs: mustprogress uwtable
define hidden void @_ZNK7datalog16relation_manager28collect_non_empty_predicatesER13obj_hashtableI9func_declE(ptr noundef nonnull readonly align 8 captures(none) dereferenceable(200) %0, ptr noundef nonnull align 8 dereferenceable(20) %1) local_unnamed_addr #4 align 2 {
  %3 = alloca ptr, align 8
  %4 = getelementptr inbounds nuw i8, ptr %0, i64 120
  %5 = load ptr, ptr %4, align 8, !tbaa !15
  %6 = getelementptr inbounds nuw i8, ptr %0, i64 128
  %7 = load i32, ptr %6, align 8, !tbaa !58
  %8 = zext i32 %7 to i64
  %9 = getelementptr inbounds nuw %"class.obj_map<func_decl, datalog::relation_base *>::obj_map_entry", ptr %5, i64 %8
  %.not1.i.i.i.i = icmp eq i32 %7, 0
  br i1 %.not1.i.i.i.i, label %_ZNK7obj_mapI9func_declPN7datalog13relation_baseEE5beginEv.exit, label %.lr.ph.i.i.i.i

.lr.ph.i.i.i.i:                                   ; preds = %2, %11
  %.sroa.0.0.i.i = phi ptr [ %12, %11 ], [ %5, %2 ]
  %10 = load ptr, ptr %.sroa.0.0.i.i, align 8, !tbaa !59
  %switch.i.i.i.i = icmp ult ptr %10, inttoptr (i64 2 to ptr)
  br i1 %switch.i.i.i.i, label %11, label %_ZNK7obj_mapI9func_declPN7datalog13relation_baseEE5beginEv.exit

11:                                               ; preds = %.lr.ph.i.i.i.i
  %12 = getelementptr inbounds nuw i8, ptr %.sroa.0.0.i.i, i64 16
  %.not.i.i.i.i = icmp eq ptr %12, %9
  br i1 %.not.i.i.i.i, label %._crit_edge, label %.lr.ph.i.i.i.i, !llvm.loop !64

_ZNK7obj_mapI9func_declPN7datalog13relation_baseEE5beginEv.exit: ; preds = %.lr.ph.i.i.i.i, %2
  %.sroa.0.1.i.i = phi ptr [ %5, %2 ], [ %.sroa.0.0.i.i, %.lr.ph.i.i.i.i ]
  %.not11 = icmp eq ptr %.sroa.0.1.i.i, %9
  br i1 %.not11, label %._crit_edge, label %.lr.ph

._crit_edge:                                      ; preds = %11, %_ZN14core_hashtableIN7obj_mapI9func_declPN7datalog13relation_baseEE13obj_map_entryE8obj_hashINS5_8key_dataEE10default_eqIS8_EE8iteratorppEv.exit, %_ZNK7obj_mapI9func_declPN7datalog13relation_baseEE5beginEv.exit
  ret void

.lr.ph:                                           ; preds = %_ZNK7obj_mapI9func_declPN7datalog13relation_baseEE5beginEv.exit, %_ZN14core_hashtableIN7obj_mapI9func_declPN7datalog13relation_baseEE13obj_map_entryE8obj_hashINS5_8key_dataEE10default_eqIS8_EE8iteratorppEv.exit
  %.sroa.08.012 = phi ptr [ %.sroa.08.2, %_ZN14core_hashtableIN7obj_mapI9func_declPN7datalog13relation_baseEE13obj_map_entryE8obj_hashINS5_8key_dataEE10default_eqIS8_EE8iteratorppEv.exit ], [ %.sroa.0.1.i.i, %_ZNK7obj_mapI9func_declPN7datalog13relation_baseEE5beginEv.exit ]
  %13 = getelementptr inbounds nuw i8, ptr %.sroa.08.012, i64 8
  %14 = load ptr, ptr %13, align 8, !tbaa !263
  %15 = load ptr, ptr %14, align 8, !tbaa !3
  %16 = getelementptr inbounds nuw i8, ptr %15, i64 32
  %17 = load ptr, ptr %16, align 8
  %18 = call noundef zeroext i1 %17(ptr noundef nonnull align 8 dereferenceable(28) %14)
  br i1 %18, label %21, label %19

19:                                               ; preds = %.lr.ph
  call void @llvm.lifetime.start.p0(i64 8, ptr nonnull %3) #27
  %20 = load ptr, ptr %.sroa.08.012, align 8, !tbaa !287
  store ptr %20, ptr %3, align 8, !tbaa !287
  call void @_ZN14core_hashtableI14obj_hash_entryI9func_declE12obj_ptr_hashIS1_E6ptr_eqIS1_EE6insertEOPS1_(ptr noundef nonnull align 8 dereferenceable(20) %1, ptr noundef nonnull align 8 dereferenceable(8) %3)
  call void @llvm.lifetime.end.p0(i64 8, ptr nonnull %3) #27
  br label %21

21:                                               ; preds = %19, %.lr.ph
  %22 = getelementptr inbounds nuw i8, ptr %.sroa.08.012, i64 16
  %.not1.i.i = icmp eq ptr %22, %9
  br i1 %.not1.i.i, label %_ZN14core_hashtableIN7obj_mapI9func_declPN7datalog13relation_baseEE13obj_map_entryE8obj_hashINS5_8key_dataEE10default_eqIS8_EE8iteratorppEv.exit, label %.lr.ph.i.i

.lr.ph.i.i:                                       ; preds = %21, %24
  %.sroa.08.1 = phi ptr [ %25, %24 ], [ %22, %21 ]
  %23 = load ptr, ptr %.sroa.08.1, align 8, !tbaa !59
  %switch.i.i = icmp ult ptr %23, inttoptr (i64 2 to ptr)
  br i1 %switch.i.i, label %24, label %_ZN14core_hashtableIN7obj_mapI9func_declPN7datalog13relation_baseEE13obj_map_entryE8obj_hashINS5_8key_dataEE10default_eqIS8_EE8iteratorppEv.exit

24:                                               ; preds = %.lr.ph.i.i
  %25 = getelementptr inbounds nuw i8, ptr %.sroa.08.1, i64 16
  %.not.i.i = icmp eq ptr %25, %9
  br i1 %.not.i.i, label %_ZN14core_hashtableIN7obj_mapI9func_declPN7datalog13relation_baseEE13obj_map_entryE8obj_hashINS5_8key_dataEE10default_eqIS8_EE8iteratorppEv.exit, label %.lr.ph.i.i, !llvm.loop !64

_ZN14core_hashtableIN7obj_mapI9func_declPN7datalog13relation_baseEE13obj_map_entryE8obj_hashINS5_8key_dataEE10default_eqIS8_EE8iteratorppEv.exit: ; preds = %.lr.ph.i.i, %24, %21
  %.sroa.08.2 = phi ptr [ %22, %21 ], [ %.sroa.08.1, %.lr.ph.i.i ], [ %25, %24 ]
  %.not = icmp eq ptr %.sroa.08.2, %9
  br i1 %.not, label %._crit_edge, label %.lr.ph
}